target datalayout = "e-m:e-p270:32:32-p271:32:32-p272:64:64-i64:64-i128:128-f80:128-n8:16:32:64-S128"
target triple = "x86_64-pc-linux-gnu"

%struct._object = type { %union.anon, ptr }
%union.anon = type { i64 }
%struct.anon = type { i32, i32 }
%struct.PyBytesObject = type { %struct.PyVarObject, i64, [1 x i8] }
%struct.PyVarObject = type { %struct._object, i64 }

@using_libedit_emulation = internal global i32 0, align 4
@.str.10 = private unnamed_addr constant [15 x i8] c"read_init_file\00", align 1
@_Py_NoneStruct = external global %struct._object, align 8
@PyExc_OSError = external global ptr, align 8
@.str.35 = private unnamed_addr constant [23 x i8] c"enable-bracketed-paste\00", align 1
@.str.36 = private unnamed_addr constant [4 x i8] c"off\00", align 1

; Function Attrs: alwaysinline nounwind uwtable
define internal i32 @_Py_IsImmortal(ptr noundef %0) #4 {
  %2 = alloca ptr, align 8
  store ptr %0, ptr %2, align 8, !tbaa !19
  %3 = load ptr, ptr %2, align 8, !tbaa !19
  %4 = getelementptr inbounds nuw %struct._object, ptr %3, i32 0, i32 0
  %5 = getelementptr inbounds nuw %struct.anon, ptr %4, i32 0, i32 0
  %6 = load i32, ptr %5, align 8, !tbaa !23
  %7 = icmp slt i32 %6, 0
  %8 = zext i1 %7 to i32
  ret i32 %8
}

; Function Attrs: nounwind uwtable
define internal void @disable_bracketed_paste() #0 {
  %1 = load i32, ptr @using_libedit_emulation, align 4, !tbaa !8
  %2 = icmp ne i32 %1, 0
  br i1 %2, label %5, label %3

3:                                                ; preds = %0
  %4 = call i32 @rl_variable_bind(ptr noundef @.str.35, ptr noundef @.str.36)
  br label %5

5:                                                ; preds = %3, %0
  ret void
}

; Function Attrs: alwaysinline nounwind uwtable
define internal void @Py_DECREF(ptr noundef %0) #4 {
  %2 = alloca ptr, align 8
  store ptr %0, ptr %2, align 8, !tbaa !19
  %3 = load ptr, ptr %2, align 8, !tbaa !19
  %4 = call i32 @_Py_IsImmortal(ptr noundef %3)
  %5 = icmp ne i32 %4, 0
  br i1 %5, label %6, label %7

6:                                                ; preds = %1
  br label %16

7:                                                ; preds = %1
  %8 = load ptr, ptr %2, align 8, !tbaa !19
  %9 = getelementptr inbounds nuw %struct._object, ptr %8, i32 0, i32 0
  %10 = getelementptr inbounds nuw %struct.anon, ptr %9, i32 0, i32 0
  %11 = load i32, ptr %10, align 8, !tbaa !23
  %12 = add i32 %11, -1
  store i32 %12, ptr %10, align 8, !tbaa !23
  %13 = icmp eq i32 %12, 0
  br i1 %13, label %14, label %16

14:                                               ; preds = %7
  %15 = load ptr, ptr %2, align 8, !tbaa !19
  call void @_Py_Dealloc(ptr noundef %15)
  br label %16

16:                                               ; preds = %6, %14, %7
  ret void
}

; Function Attrs: inlinehint nounwind uwtable
define internal ptr @PyBytes_AS_STRING(ptr noundef %0) #5 {
  %2 = alloca ptr, align 8
  store ptr %0, ptr %2, align 8, !tbaa !19
  %3 = load ptr, ptr %2, align 8, !tbaa !19
  %4 = getelementptr inbounds nuw %struct.PyBytesObject, ptr %3, i32 0, i32 2
  %5 = getelementptr inbounds [1 x i8], ptr %4, i64 0, i64 0
  ret ptr %5
}

; Function Attrs: nounwind uwtable
define internal ptr @readline_read_init_file_impl(ptr noundef %0, ptr noundef %1) #0 {
  %3 = alloca ptr, align 8
  %4 = alloca ptr, align 8
  %5 = alloca ptr, align 8
  %6 = alloca ptr, align 8
  %7 = alloca i32, align 4
  store ptr %0, ptr %4, align 8, !tbaa !19
  store ptr %1, ptr %5, align 8, !tbaa !19
  call void @llvm.lifetime.start.p0(i64 8, ptr %6) #10
  %8 = load ptr, ptr %5, align 8, !tbaa !19
  %9 = icmp ne ptr %8, @_Py_NoneStruct
  br i1 %9, label %10, label %21

10:                                               ; preds = %2
  %11 = load ptr, ptr %5, align 8, !tbaa !19
  %12 = call i32 @PyUnicode_FSConverter(ptr noundef %11, ptr noundef %6)
  %13 = icmp ne i32 %12, 0
  br i1 %13, label %15, label %14

14:                                               ; preds = %10
  store ptr null, ptr %3, align 8
  store i32 1, ptr %7, align 4
  br label %32

15:                                               ; preds = %10
  %16 = load ptr, ptr %6, align 8, !tbaa !19
  %17 = call ptr @PyBytes_AS_STRING(ptr noundef %16)
  %18 = call i32 @rl_read_init_file(ptr noundef %17)
  %19 = call ptr @__errno_location() #13
  store i32 %18, ptr %19, align 4, !tbaa !8
  %20 = load ptr, ptr %6, align 8, !tbaa !19
  call void @Py_DECREF(ptr noundef %20)
  br label %24

21:                                               ; preds = %2
  %22 = call i32 @rl_read_init_file(ptr noundef null)
  %23 = call ptr @__errno_location() #13
  store i32 %22, ptr %23, align 4, !tbaa !8
  br label %24

24:                                               ; preds = %21, %15
  %25 = call ptr @__errno_location() #13
  %26 = load i32, ptr %25, align 4, !tbaa !8
  %27 = icmp ne i32 %26, 0
  br i1 %27, label %28, label %31

28:                                               ; preds = %24
  %29 = load ptr, ptr @PyExc_OSError, align 8, !tbaa !19
  %30 = call ptr @PyErr_SetFromErrno(ptr noundef %29)
  store ptr %30, ptr %3, align 8
  store i32 1, ptr %7, align 4
  br label %32

31:                                               ; preds = %24
  call void @disable_bracketed_paste()
  store ptr @_Py_NoneStruct, ptr %3, align 8
  store i32 1, ptr %7, align 4
  br label %32

32:                                               ; preds = %31, %28, %14
  call void @llvm.lifetime.end.p0(i64 8, ptr %6) #10
  %33 = load ptr, ptr %3, align 8
  ret ptr %33
}

; Function Attrs: nounwind uwtable
define internal ptr @readline_read_init_file(ptr noundef %0, ptr noundef %1, i64 noundef %2) #0 {
  %4 = alloca ptr, align 8
  %5 = alloca ptr, align 8
  %6 = alloca i64, align 8
  %7 = alloca ptr, align 8
  %8 = alloca ptr, align 8
  store ptr %0, ptr %4, align 8, !tbaa !19
  store ptr %1, ptr %5, align 8, !tbaa !36
  store i64 %2, ptr %6, align 8, !tbaa !24
  call void @llvm.lifetime.start.p0(i64 8, ptr %7) #10
  store ptr null, ptr %7, align 8, !tbaa !19
  call void @llvm.lifetime.start.p0(i64 8, ptr %8) #10
  store ptr @_Py_NoneStruct, ptr %8, align 8, !tbaa !19
  %9 = load i64, ptr %6, align 8, !tbaa !24
  %10 = icmp sle i64 0, %9
  br i1 %10, label %11, label %14

11:                                               ; preds = %3
  %12 = load i64, ptr %6, align 8, !tbaa !24
  %13 = icmp sle i64 %12, 1
  br i1 %13, label %19, label %14

14:                                               ; preds = %11, %3
  %15 = load i64, ptr %6, align 8, !tbaa !24
  %16 = call i32 @_PyArg_CheckPositional(ptr noundef @.str.10, i64 noundef %15, i64 noundef 0, i64 noundef 1)
  %17 = icmp ne i32 %16, 0
  br i1 %17, label %19, label %18

18:                                               ; preds = %14
  br label %31

19:                                               ; preds = %14, %11
  %20 = load i64, ptr %6, align 8, !tbaa !24
  %21 = icmp slt i64 %20, 1
  br i1 %21, label %22, label %23

22:                                               ; preds = %19
  br label %27

23:                                               ; preds = %19
  %24 = load ptr, ptr %5, align 8, !tbaa !36
  %25 = getelementptr ptr, ptr %24, i64 0
  %26 = load ptr, ptr %25, align 8, !tbaa !19
  store ptr %26, ptr %8, align 8, !tbaa !19
  br label %27

27:                                               ; preds = %23, %22
  %28 = load ptr, ptr %4, align 8, !tbaa !19
  %29 = load ptr, ptr %8, align 8, !tbaa !19
  %30 = call ptr @readline_read_init_file_impl(ptr noundef %28, ptr noundef %29)
  store ptr %30, ptr %7, align 8, !tbaa !19
  br label %31

31:                                               ; preds = %27, %18
  %32 = load ptr, ptr %7, align 8, !tbaa !19
  call void @llvm.lifetime.end.p0(i64 8, ptr %8) #10
  call void @llvm.lifetime.end.p0(i64 8, ptr %7) #10
  ret ptr %32
}