; Function Attrs: nounwind uwtable
define internal ptr @readline_read_init_file(ptr readnone captures(none) %0, ptr noundef readonly captures(none) %1, i64 noundef %2) #0 {
  %4 = alloca ptr, align 8
  %or.cond = icmp ult i64 %2, 2
  br i1 %or.cond, label %7, label %5

5:                                                ; preds = %3
  %6 = tail call i32 @_PyArg_CheckPositional(ptr noundef nonnull @.str.10, i64 noundef %2, i64 noundef 0, i64 noundef 1) #14
  %.not = icmp eq i32 %6, 0
  br i1 %.not, label %34, label %7

7:                                                ; preds = %3, %5
  %8 = icmp slt i64 %2, 1
  br i1 %8, label %.thread, label %9

.thread:                                          ; preds = %7
  call void @llvm.lifetime.start.p0(i64 8, ptr nonnull %4) #14
  br label %24

9:                                                ; preds = %7
  %10 = load ptr, ptr %1, align 8, !tbaa !41
  call void @llvm.lifetime.start.p0(i64 8, ptr nonnull %4) #14
  %.not.i = icmp eq ptr %10, @_Py_NoneStruct
  br i1 %.not.i, label %24, label %11

11:                                               ; preds = %9
  %12 = call i32 @PyUnicode_FSConverter(ptr noundef %10, ptr noundef nonnull %4) #14
  %.not4.i = icmp eq i32 %12, 0
  br i1 %.not4.i, label %readline_read_init_file_impl.exit, label %13

13:                                               ; preds = %11
  %14 = load ptr, ptr %4, align 8, !tbaa !41
  %15 = getelementptr inbounds nuw i8, ptr %14, i64 32
  %16 = call i32 @rl_read_init_file(ptr noundef nonnull %15) #14
  %17 = tail call ptr @__errno_location() #16
  store i32 %16, ptr %17, align 4, !tbaa !17
  %18 = load ptr, ptr %4, align 8, !tbaa !41
  %19 = load i32, ptr %18, align 8, !tbaa !25
  %.not.i.i = icmp sgt i32 %19, -1
  br i1 %.not.i.i, label %20, label %Py_DECREF.exit.i

20:                                               ; preds = %13
  %21 = add nsw i32 %19, -1
  store i32 %21, ptr %18, align 8, !tbaa !25
  %22 = icmp eq i32 %21, 0
  br i1 %22, label %23, label %Py_DECREF.exitthread-pre-split.i

23:                                               ; preds = %20
  call void @_Py_Dealloc(ptr noundef nonnull %18) #14
  br label %Py_DECREF.exitthread-pre-split.i

24:                                               ; preds = %.thread, %9
  %25 = tail call i32 @rl_read_init_file(ptr noundef null) #14
  %26 = tail call ptr @__errno_location() #16
  store i32 %25, ptr %26, align 4, !tbaa !17
  br label %Py_DECREF.exit.i

Py_DECREF.exitthread-pre-split.i:                 ; preds = %23, %20
  %.pr.i = load i32, ptr %17, align 4, !tbaa !17
  br label %Py_DECREF.exit.i

Py_DECREF.exit.i:                                 ; preds = %Py_DECREF.exitthread-pre-split.i, %24, %13
  %27 = phi i32 [ %.pr.i, %Py_DECREF.exitthread-pre-split.i ], [ %16, %13 ], [ %25, %24 ]
  %.not5.i = icmp eq i32 %27, 0
  br i1 %.not5.i, label %31, label %28

28:                                               ; preds = %Py_DECREF.exit.i
  %29 = load ptr, ptr @PyExc_OSError, align 8, !tbaa !41
  %30 = call ptr @PyErr_SetFromErrno(ptr noundef %29) #14
  br label %readline_read_init_file_impl.exit

31:                                               ; preds = %Py_DECREF.exit.i
  %.b.i.i = load i1, ptr @using_libedit_emulation, align 4
  br i1 %.b.i.i, label %readline_read_init_file_impl.exit, label %32

32:                                               ; preds = %31
  %33 = call i32 @rl_variable_bind(ptr noundef nonnull @.str.35, ptr noundef nonnull @.str.36) #14
  br label %readline_read_init_file_impl.exit

readline_read_init_file_impl.exit:                ; preds = %11, %28, %31, %32
  %.0.i = phi ptr [ %30, %28 ], [ null, %11 ], [ @_Py_NoneStruct, %31 ], [ @_Py_NoneStruct, %32 ]
  call void @llvm.lifetime.end.p0(i64 8, ptr nonnull %4) #14
  br label %34

34:                                               ; preds = %5, %readline_read_init_file_impl.exit
  %.08 = phi ptr [ %.0.i, %readline_read_init_file_impl.exit ], [ null, %5 ]
  ret ptr %.08
}